target datalayout = "e-m:e-p270:32:32-p271:32:32-p272:64:64-i64:64-i128:128-f80:128-n8:16:32:64-S128"
target triple = "x86_64-unknown-linux-gnu"

%"class.icu_75::ReadArray1D" = type { ptr }
%"class.icu_75::ReadArray2D" = type { ptr }
%"struct.icu_75::LSTMData" = type { ptr, i32, ptr, %"class.icu_75::ConstArray2D", %"class.icu_75::ConstArray2D", %"class.icu_75::ConstArray2D", %"class.icu_75::ConstArray1D", %"class.icu_75::ConstArray2D", %"class.icu_75::ConstArray2D", %"class.icu_75::ConstArray1D", %"class.icu_75::ConstArray2D", %"class.icu_75::ConstArray1D", ptr }
%"class.icu_75::ConstArray2D" = type { %"class.icu_75::ReadArray2D", ptr, i32, i32 }
%"class.icu_75::ConstArray1D" = type <{ %"class.icu_75::ReadArray1D", ptr, i32, [4 x i8] }>

@_ZN6icu_7512ConstArray1DD1Ev = unnamed_addr alias void (ptr), ptr @_ZN6icu_7512ConstArray1DD2Ev
@_ZN6icu_7512ConstArray2DD1Ev = unnamed_addr alias void (ptr), ptr @_ZN6icu_7512ConstArray2DD2Ev

; Function Attrs: mustprogress nounwind uwtable
define void @_ZN6icu_758LSTMDataD2Ev(ptr noundef nonnull align 8 dereferenceable(248) %this) unnamed_addr #0 align 2 personality ptr @__gxx_personality_v0 {
entry:
  %this.addr = alloca ptr, align 8
  store ptr %this, ptr %this.addr, align 8
  %this1 = load ptr, ptr %this.addr, align 8
  %fDict = getelementptr inbounds %"struct.icu_75::LSTMData", ptr %this1, i32 0, i32 0
  %0 = load ptr, ptr %fDict, align 8
  invoke void @uhash_close_75(ptr noundef %0)
          to label %invoke.cont unwind label %terminate.lpad

invoke.cont:                                      ; preds = %entry
  %fBundle = getelementptr inbounds %"struct.icu_75::LSTMData", ptr %this1, i32 0, i32 12
  %1 = load ptr, ptr %fBundle, align 8
  invoke void @ures_close_75(ptr noundef %1)
          to label %invoke.cont2 unwind label %terminate.lpad

invoke.cont2:                                     ; preds = %invoke.cont
  %fOutputB = getelementptr inbounds %"struct.icu_75::LSTMData", ptr %this1, i32 0, i32 11
  call void @_ZN6icu_7512ConstArray1DD1Ev(ptr noundef nonnull align 8 dereferenceable(20) %fOutputB) #12
  %fOutputW = getelementptr inbounds %"struct.icu_75::LSTMData", ptr %this1, i32 0, i32 10
  call void @_ZN6icu_7512ConstArray2DD1Ev(ptr noundef nonnull align 8 dereferenceable(24) %fOutputW) #12
  %fBackwardB = getelementptr inbounds %"struct.icu_75::LSTMData", ptr %this1, i32 0, i32 9
  call void @_ZN6icu_7512ConstArray1DD1Ev(ptr noundef nonnull align 8 dereferenceable(20) %fBackwardB) #12
  %fBackwardU = getelementptr inbounds %"struct.icu_75::LSTMData", ptr %this1, i32 0, i32 8
  call void @_ZN6icu_7512ConstArray2DD1Ev(ptr noundef nonnull align 8 dereferenceable(24) %fBackwardU) #12
  %fBackwardW = getelementptr inbounds %"struct.icu_75::LSTMData", ptr %this1, i32 0, i32 7
  call void @_ZN6icu_7512ConstArray2DD1Ev(ptr noundef nonnull align 8 dereferenceable(24) %fBackwardW) #12
  %fForwardB = getelementptr inbounds %"struct.icu_75::LSTMData", ptr %this1, i32 0, i32 6
  call void @_ZN6icu_7512ConstArray1DD1Ev(ptr noundef nonnull align 8 dereferenceable(20) %fForwardB) #12
  %fForwardU = getelementptr inbounds %"struct.icu_75::LSTMData", ptr %this1, i32 0, i32 5
  call void @_ZN6icu_7512ConstArray2DD1Ev(ptr noundef nonnull align 8 dereferenceable(24) %fForwardU) #12
  %fForwardW = getelementptr inbounds %"struct.icu_75::LSTMData", ptr %this1, i32 0, i32 4
  call void @_ZN6icu_7512ConstArray2DD1Ev(ptr noundef nonnull align 8 dereferenceable(24) %fForwardW) #12
  %fEmbedding = getelementptr inbounds %"struct.icu_75::LSTMData", ptr %this1, i32 0, i32 3
  call void @_ZN6icu_7512ConstArray2DD1Ev(ptr noundef nonnull align 8 dereferenceable(24) %fEmbedding) #12
  ret void

terminate.lpad:                                   ; preds = %invoke.cont, %entry
  %2 = landingpad { ptr, i32 }
          catch ptr null
  %3 = extractvalue { ptr, i32 } %2, 0
  call void @__clang_call_terminate(ptr %3) #14
  unreachable
}