; Function Attrs: mustprogress nounwind uwtable
define void @_ZN6icu_758LSTMDataD2Ev(ptr noundef nonnull align 8 dereferenceable(248) %this) unnamed_addr #0 align 2 personality ptr @__gxx_personality_v0 {
entry:
  %0 = load ptr, ptr %this, align 8
  invoke void @uhash_close_75(ptr noundef %0)
          to label %invoke.cont unwind label %terminate.lpad

invoke.cont:                                      ; preds = %entry
  %fBundle = getelementptr inbounds i8, ptr %this, i64 240
  %1 = load ptr, ptr %fBundle, align 8
  invoke void @ures_close_75(ptr noundef %1)
          to label %invoke.cont2 unwind label %terminate.lpad

invoke.cont2:                                     ; preds = %invoke.cont
  %fOutputB = getelementptr inbounds i8, ptr %this, i64 216
  tail call void @_ZN6icu_7512ConstArray1DD1Ev(ptr noundef nonnull align 8 dereferenceable(20) %fOutputB) #20
  %fOutputW = getelementptr inbounds i8, ptr %this, i64 192
  tail call void @_ZN6icu_7512ConstArray2DD1Ev(ptr noundef nonnull align 8 dereferenceable(24) %fOutputW) #20
  %fBackwardB = getelementptr inbounds i8, ptr %this, i64 168
  tail call void @_ZN6icu_7512ConstArray1DD1Ev(ptr noundef nonnull align 8 dereferenceable(20) %fBackwardB) #20
  %fBackwardU = getelementptr inbounds i8, ptr %this, i64 144
  tail call void @_ZN6icu_7512ConstArray2DD1Ev(ptr noundef nonnull align 8 dereferenceable(24) %fBackwardU) #20
  %fBackwardW = getelementptr inbounds i8, ptr %this, i64 120
  tail call void @_ZN6icu_7512ConstArray2DD1Ev(ptr noundef nonnull align 8 dereferenceable(24) %fBackwardW) #20
  %fForwardB = getelementptr inbounds i8, ptr %this, i64 96
  tail call void @_ZN6icu_7512ConstArray1DD1Ev(ptr noundef nonnull align 8 dereferenceable(20) %fForwardB) #20
  %fForwardU = getelementptr inbounds i8, ptr %this, i64 72
  tail call void @_ZN6icu_7512ConstArray2DD1Ev(ptr noundef nonnull align 8 dereferenceable(24) %fForwardU) #20
  %fForwardW = getelementptr inbounds i8, ptr %this, i64 48
  tail call void @_ZN6icu_7512ConstArray2DD1Ev(ptr noundef nonnull align 8 dereferenceable(24) %fForwardW) #20
  %fEmbedding = getelementptr inbounds i8, ptr %this, i64 24
  tail call void @_ZN6icu_7512ConstArray2DD1Ev(ptr noundef nonnull align 8 dereferenceable(24) %fEmbedding) #20
  ret void

terminate.lpad:                                   ; preds = %invoke.cont, %entry
  %2 = landingpad { ptr, i32 }
          catch ptr null
  %3 = extractvalue { ptr, i32 } %2, 0
  tail call void @__clang_call_terminate(ptr %3) #22
  unreachable
}